; Function Attrs: nounwind uwtable
define internal fastcc void @deparseAttr(ptr noundef readonly captures(none) %0, ptr noundef nonnull captures(none) %1) unnamed_addr #0 {
  %3 = load i16, ptr %0, align 8, !tbaa !14
  %4 = getelementptr inbounds nuw i8, ptr %0, i64 8
  %5 = load ptr, ptr %4, align 8, !tbaa !19
  switch i16 %3, label %87 [
    i16 289, label %6
    i16 286, label %84
  ]

6:                                                ; preds = %2
  tail call void (ptr, ptr, ...) @agxbprint(ptr noundef %1, ptr noundef nonnull @.str.59, ptr noundef %5)
  %7 = getelementptr inbounds nuw i8, ptr %0, i64 16
  %8 = load ptr, ptr %7, align 8, !tbaa !18
  %9 = getelementptr i8, ptr %1, i64 31
  %.val.i.i.i13 = load i8, ptr %9, align 1, !tbaa !18
  %.not.i.i.i14 = icmp eq i8 %.val.i.i.i13, -1
  br i1 %.not.i.i.i14, label %11, label %agxbsizeof.exit.i.i15

agxbsizeof.exit.i.i15:                            ; preds = %6
  %10 = zext i8 %.val.i.i.i13 to i64
  br label %agxblen.exit.i.i16

11:                                               ; preds = %6
  %12 = getelementptr inbounds nuw i8, ptr %1, i64 16
  %13 = load i64, ptr %12, align 8, !tbaa !18
  %14 = getelementptr inbounds nuw i8, ptr %1, i64 8
  %15 = load i64, ptr %14, align 8, !tbaa !18
  br label %agxblen.exit.i.i16

agxblen.exit.i.i16:                               ; preds = %11, %agxbsizeof.exit.i.i15
  %.0.i30.i.i17 = phi i64 [ 31, %agxbsizeof.exit.i.i15 ], [ %13, %11 ]
  %.0.i24.i.i18 = phi i64 [ %10, %agxbsizeof.exit.i.i15 ], [ %15, %11 ]
  %16 = sub i64 %.0.i30.i.i17, %.0.i24.i.i18
  %17 = icmp ult i64 %16, 2
  br i1 %17, label %18, label %19

18:                                               ; preds = %agxblen.exit.i.i16
  tail call fastcc void @agxbmore(ptr noundef nonnull %1, i64 noundef 2)
  %.val.i25.pre.i.i21 = load i8, ptr %9, align 1, !tbaa !18
  br label %19

19:                                               ; preds = %18, %agxblen.exit.i.i16
  %.val.i25.i.i19 = phi i8 [ %.val.i25.pre.i.i21, %18 ], [ %.val.i.i.i13, %agxblen.exit.i.i16 ]
  %.not.i26.i.i20 = icmp eq i8 %.val.i25.i.i19, -1
  br i1 %.not.i26.i.i20, label %25, label %20

20:                                               ; preds = %19
  %21 = zext i8 %.val.i25.i.i19 to i64
  %22 = getelementptr inbounds nuw [31 x i8], ptr %1, i64 0, i64 %21
  store i16 8283, ptr %22, align 1
  %23 = load i8, ptr %9, align 1, !tbaa !18
  %24 = add i8 %23, 2
  store i8 %24, ptr %9, align 1, !tbaa !18
  br label %agxbput.exit22

25:                                               ; preds = %19
  %26 = getelementptr inbounds nuw i8, ptr %1, i64 8
  %27 = load i64, ptr %26, align 8, !tbaa !18
  %28 = load ptr, ptr %1, align 8, !tbaa !18
  %29 = getelementptr inbounds nuw i8, ptr %28, i64 %27
  store i16 8283, ptr %29, align 1
  %30 = load i64, ptr %26, align 8, !tbaa !18
  %31 = add i64 %30, 2
  store i64 %31, ptr %26, align 8, !tbaa !18
  br label %agxbput.exit22

agxbput.exit22:                                   ; preds = %20, %25
  %32 = getelementptr i8, ptr %8, i64 16
  %.not.i = icmp eq ptr %8, null
  br i1 %.not.i, label %deparseList.exit, label %.lr.ph

.lr.ph:                                           ; preds = %agxbput.exit22
  %33 = getelementptr inbounds nuw i8, ptr %8, i64 8
  %34 = getelementptr inbounds nuw i8, ptr %8, i64 24
  %35 = getelementptr inbounds nuw i8, ptr %1, i64 8
  %36 = getelementptr inbounds nuw i8, ptr %1, i64 16
  %.val.i25 = load i64, ptr %32, align 8, !tbaa !4
  %.not = icmp eq i64 %.val.i25, 0
  br i1 %.not, label %deparseList.exit, label %.lr.ph27

.lr.ph27:                                         ; preds = %.lr.ph, %agxbputc.exit
  %.0.i2326 = phi i64 [ %61, %agxbputc.exit ], [ 0, %.lr.ph ]
  %37 = load ptr, ptr %8, align 8, !tbaa !10
  %38 = load i64, ptr %33, align 8, !tbaa !11
  %39 = add i64 %38, %.0.i2326
  %40 = load i64, ptr %34, align 8, !tbaa !12
  %41 = urem i64 %39, %40
  %42 = getelementptr inbounds nuw ptr, ptr %37, i64 %41
  %43 = load ptr, ptr %42, align 8, !tbaa !13
  tail call fastcc void @deparseAttr(ptr noundef %43, ptr noundef nonnull %1)
  %.val.i.i = load i8, ptr %9, align 1, !tbaa !18
  %.not.i.i = icmp eq i8 %.val.i.i, -1
  br i1 %.not.i.i, label %45, label %agxblen.exit.i

agxblen.exit.i:                                   ; preds = %.lr.ph27
  %44 = zext i8 %.val.i.i to i64
  br label %agxbsizeof.exit.i

45:                                               ; preds = %.lr.ph27
  %46 = load i64, ptr %35, align 8, !tbaa !18
  %47 = load i64, ptr %36, align 8, !tbaa !18
  br label %agxbsizeof.exit.i

agxbsizeof.exit.i:                                ; preds = %45, %agxblen.exit.i
  %.0.i20.i = phi i64 [ %46, %45 ], [ %44, %agxblen.exit.i ]
  %.0.i14.i = phi i64 [ %47, %45 ], [ 31, %agxblen.exit.i ]
  %.not.i12 = icmp ult i64 %.0.i20.i, %.0.i14.i
  br i1 %.not.i12, label %49, label %48

48:                                               ; preds = %agxbsizeof.exit.i
  tail call fastcc void @agxbmore(ptr noundef nonnull %1, i64 noundef 1)
  %.val.i15.pre.i = load i8, ptr %9, align 1, !tbaa !18
  br label %49

49:                                               ; preds = %48, %agxbsizeof.exit.i
  %.val.i15.i = phi i8 [ %.val.i15.pre.i, %48 ], [ %.val.i.i, %agxbsizeof.exit.i ]
  %.not.i16.i = icmp eq i8 %.val.i15.i, -1
  br i1 %.not.i16.i, label %55, label %50

50:                                               ; preds = %49
  %51 = zext i8 %.val.i15.i to i64
  %52 = getelementptr inbounds nuw [31 x i8], ptr %1, i64 0, i64 %51
  store i8 32, ptr %52, align 1, !tbaa !18
  %53 = load i8, ptr %9, align 1, !tbaa !18
  %54 = add i8 %53, 1
  store i8 %54, ptr %9, align 1, !tbaa !18
  br label %agxbputc.exit

55:                                               ; preds = %49
  %56 = load i64, ptr %35, align 8, !tbaa !18
  %57 = load ptr, ptr %1, align 8, !tbaa !18
  %58 = getelementptr inbounds nuw i8, ptr %57, i64 %56
  store i8 32, ptr %58, align 1, !tbaa !18
  %59 = load i64, ptr %35, align 8, !tbaa !18
  %60 = add i64 %59, 1
  store i64 %60, ptr %35, align 8, !tbaa !18
  br label %agxbputc.exit

agxbputc.exit:                                    ; preds = %50, %55
  %61 = add nuw i64 %.0.i2326, 1
  %.val.i = load i64, ptr %32, align 8, !tbaa !4
  %62 = icmp ult i64 %61, %.val.i
  br i1 %62, label %.lr.ph27, label %deparseList.exit

deparseList.exit:                                 ; preds = %agxbputc.exit, %.lr.ph, %agxbput.exit22
  %.val.i.i.i = load i8, ptr %9, align 1, !tbaa !18
  %.not.i.i.i = icmp eq i8 %.val.i.i.i, -1
  br i1 %.not.i.i.i, label %64, label %agxbsizeof.exit.i.i

agxbsizeof.exit.i.i:                              ; preds = %deparseList.exit
  %63 = zext i8 %.val.i.i.i to i64
  br label %agxblen.exit.i.i

64:                                               ; preds = %deparseList.exit
  %65 = getelementptr inbounds nuw i8, ptr %1, i64 16
  %66 = load i64, ptr %65, align 8, !tbaa !18
  %67 = getelementptr inbounds nuw i8, ptr %1, i64 8
  %68 = load i64, ptr %67, align 8, !tbaa !18
  br label %agxblen.exit.i.i

agxblen.exit.i.i:                                 ; preds = %64, %agxbsizeof.exit.i.i
  %.0.i30.i.i = phi i64 [ 31, %agxbsizeof.exit.i.i ], [ %66, %64 ]
  %.0.i24.i.i = phi i64 [ %63, %agxbsizeof.exit.i.i ], [ %68, %64 ]
  %69 = icmp eq i64 %.0.i30.i.i, %.0.i24.i.i
  br i1 %69, label %70, label %71

70:                                               ; preds = %agxblen.exit.i.i
  tail call fastcc void @agxbmore(ptr noundef nonnull %1, i64 noundef 1)
  %.val.i25.pre.i.i = load i8, ptr %9, align 1, !tbaa !18
  br label %71

71:                                               ; preds = %70, %agxblen.exit.i.i
  %.val.i25.i.i = phi i8 [ %.val.i25.pre.i.i, %70 ], [ %.val.i.i.i, %agxblen.exit.i.i ]
  %.not.i26.i.i = icmp eq i8 %.val.i25.i.i, -1
  br i1 %.not.i26.i.i, label %77, label %72

72:                                               ; preds = %71
  %73 = zext i8 %.val.i25.i.i to i64
  %74 = getelementptr inbounds nuw [31 x i8], ptr %1, i64 0, i64 %73
  store i8 93, ptr %74, align 1
  %75 = load i8, ptr %9, align 1, !tbaa !18
  %76 = add i8 %75, 1
  store i8 %76, ptr %9, align 1, !tbaa !18
  br label %agxbput.exit

77:                                               ; preds = %71
  %78 = getelementptr inbounds nuw i8, ptr %1, i64 8
  %79 = load i64, ptr %78, align 8, !tbaa !18
  %80 = load ptr, ptr %1, align 8, !tbaa !18
  %81 = getelementptr inbounds nuw i8, ptr %80, i64 %79
  store i8 93, ptr %81, align 1
  %82 = load i64, ptr %78, align 8, !tbaa !18
  %83 = add i64 %82, 1
  store i64 %83, ptr %78, align 8, !tbaa !18
  br label %agxbput.exit

84:                                               ; preds = %2
  %85 = getelementptr inbounds nuw i8, ptr %0, i64 16
  %86 = load ptr, ptr %85, align 8, !tbaa !18
  tail call void (ptr, ptr, ...) @agxbprint(ptr noundef %1, ptr noundef nonnull @.str.60, ptr noundef %5, ptr noundef %86)
  br label %agxbput.exit

87:                                               ; preds = %2
  %88 = getelementptr inbounds nuw i8, ptr %0, i64 16
  %89 = load ptr, ptr %88, align 8, !tbaa !18
  tail call void (ptr, ptr, ...) @agxbprint(ptr noundef %1, ptr noundef nonnull @.str.61, ptr noundef %5, ptr noundef %89)
  br label %agxbput.exit

agxbput.exit:                                     ; preds = %77, %72, %84, %87
  ret void
}